(dp0
S'failed'
p1
(lp2
sS'source_names'
p3
(lp4
S'.'
p5
asS'ids'
p6
(dp7
I1
(S'/Volumes/Data/Projects/sphinxit/sphinxit/tests/test_core.py'
p8
S'sphinxit.tests.test_core'
p9
S'TestAvg.test_basics'
p10
tp11
sI2
(S'/Volumes/Data/Projects/sphinxit/sphinxit/tests/test_core.py'
p12
g9
S'TestAvg.test_wrong_attr'
p13
tp14
sI3
(S'/Volumes/Data/Projects/sphinxit/sphinxit/tests/test_core.py'
p15
g9
S'TestCount.test_basics'
p16
tp17
sI4
(S'/Volumes/Data/Projects/sphinxit/sphinxit/tests/test_core.py'
p18
g9
S'TestCount.test_wrong_attr'
p19
tp20
sI5
(S'/Volumes/Data/Projects/sphinxit/sphinxit/tests/test_core.py'
p21
g9
S'TestMax.test_basics'
p22
tp23
sI6
(S'/Volumes/Data/Projects/sphinxit/sphinxit/tests/test_core.py'
p24
g9
S'TestMax.test_wrong_attr'
p25
tp26
sI7
(S'/Volumes/Data/Projects/sphinxit/sphinxit/tests/test_core.py'
p27
g9
S'TestMin.test_basics'
p28
tp29
sI8
(S'/Volumes/Data/Projects/sphinxit/sphinxit/tests/test_core.py'
p30
g9
S'TestMin.test_wrong_attr'
p31
tp32
sI9
(S'/Volumes/Data/Projects/sphinxit/sphinxit/tests/test_core.py'
p33
g9
S'TestQ.test_concat'
p34
tp35
sI10
(S'/Volumes/Data/Projects/sphinxit/sphinxit/tests/test_core.py'
p36
g9
S'TestQ.test_initial'
p37
tp38
sI11
(S'/Volumes/Data/Projects/sphinxit/sphinxit/tests/test_core.py'
p39
g9
S'TestQ.test_negative_concat'
p40
tp41
sI12
(S'/Volumes/Data/Projects/sphinxit/sphinxit/tests/test_core.py'
p42
g9
S'TestSXQLFilter.test_initial'
p43
tp44
sI13
(S'/Volumes/Data/Projects/sphinxit/sphinxit/tests/test_core.py'
p45
g9
S'TestSXQLFilter.test_wrong_attrs'
p46
tp47
sI14
(S'/Volumes/Data/Projects/sphinxit/sphinxit/tests/test_core.py'
p48
g9
S'TestSXQLFrom.test_duplicate_args'
p49
tp50
sI15
(S'/Volumes/Data/Projects/sphinxit/sphinxit/tests/test_core.py'
p51
g9
S'TestSXQLFrom.test_initial'
p52
tp53
sI16
(S'/Volumes/Data/Projects/sphinxit/sphinxit/tests/test_core.py'
p54
g9
S'TestSXQLFrom.test_wrong_args'
p55
tp56
sI17
(S'/Volumes/Data/Projects/sphinxit/sphinxit/tests/test_core.py'
p57
g9
S'TestSXQLGroupBy.test_initial'
p58
tp59
sI18
(S'/Volumes/Data/Projects/sphinxit/sphinxit/tests/test_core.py'
p60
g9
S'TestSXQLGroupBy.test_wrong_attrs'
p61
tp62
sI19
(S'/Volumes/Data/Projects/sphinxit/sphinxit/tests/test_core.py'
p63
g9
S'TestSXQLLimit.test_initial'
p64
tp65
sI20
(S'/Volumes/Data/Projects/sphinxit/sphinxit/tests/test_core.py'
p66
g9
S'TestSXQLLimit.test_unique_call'
p67
tp68
sI21
(S'/Volumes/Data/Projects/sphinxit/sphinxit/tests/test_core.py'
p69
g9
S'TestSXQLLimit.test_wrong_attrs'
p70
tp71
sI22
(S'/Volumes/Data/Projects/sphinxit/sphinxit/tests/test_core.py'
p72
g9
S'TestSXQLMatch.test_initial'
p73
tp74
sI23
(S'/Volumes/Data/Projects/sphinxit/sphinxit/tests/test_core.py'
p75
g9
S'TestSXQLMatch.test_match_join_and_escape'
p76
tp77
sI24
(S'/Volumes/Data/Projects/sphinxit/sphinxit/tests/test_core.py'
p78
g9
S'TestSXQLMatch.test_quotes_escape'
p79
tp80
sI25
(S'/Volumes/Data/Projects/sphinxit/sphinxit/tests/test_core.py'
p81
g9
S'TestSXQLMatch.test_unescaped_query'
p82
tp83
sI26
(S'/Volumes/Data/Projects/sphinxit/sphinxit/tests/test_core.py'
p84
g9
S'TestSXQLMatch.test_wrong_query'
p85
tp86
sI27
(S'/Volumes/Data/Projects/sphinxit/sphinxit/tests/test_core.py'
p87
g9
S'TestSXQLORFilter.test_basics'
p88
tp89
sI28
(S'/Volumes/Data/Projects/sphinxit/sphinxit/tests/test_core.py'
p90
g9
S'TestSXQLORFilter.test_complex_expression'
p91
tp92
sI29
(S'/Volumes/Data/Projects/sphinxit/sphinxit/tests/test_core.py'
p93
g9
S'TestSXQLORFilter.test_wrong_attrs'
p94
tp95
sI30
(S'/Volumes/Data/Projects/sphinxit/sphinxit/tests/test_core.py'
p96
g9
S'TestSXQLOrder.test_initial'
p97
tp98
sI31
(S'/Volumes/Data/Projects/sphinxit/sphinxit/tests/test_core.py'
p99
g9
S'TestSXQLOrder.test_wrong_attrs'
p100
tp101
sI32
(S'/Volumes/Data/Projects/sphinxit/sphinxit/tests/test_core.py'
p102
g9
S'TestSXQLSelect.test_duplicate_args'
p103
tp104
sI33
(S'/Volumes/Data/Projects/sphinxit/sphinxit/tests/test_core.py'
p105
g9
S'TestSXQLSelect.test_initial'
p106
tp107
sI34
(S'/Volumes/Data/Projects/sphinxit/sphinxit/tests/test_core.py'
p108
g9
S'TestSXQLSelect.test_wrong_args'
p109
tp110
sI35
(S'/Volumes/Data/Projects/sphinxit/sphinxit/tests/test_core.py'
p111
g9
S'TestSXQLSnippets.test_basics'
p112
tp113
sI36
(S'/Volumes/Data/Projects/sphinxit/sphinxit/tests/test_core.py'
p114
g9
S'TestSXQLSnippets.test_quotes_escaping'
p115
tp116
sI37
(S'/Volumes/Data/Projects/sphinxit/sphinxit/tests/test_core.py'
p117
g9
S'TestSXQLSnippets.test_string_as_data'
p118
tp119
sI38
(S'/Volumes/Data/Projects/sphinxit/sphinxit/tests/test_core.py'
p120
g9
S'TestSXQLSnippets.test_with_options_1'
p121
tp122
sI39
(S'/Volumes/Data/Projects/sphinxit/sphinxit/tests/test_core.py'
p123
g9
S'TestSXQLSnippets.test_with_options_2'
p124
tp125
sI40
(S'/Volumes/Data/Projects/sphinxit/sphinxit/tests/test_core.py'
p126
g9
S'TestSXQLSnippets.test_wrong_options_param'
p127
tp128
sI41
(S'/Volumes/Data/Projects/sphinxit/sphinxit/tests/test_core.py'
p129
g9
S'TestSXQLSnippets.test_wrong_usage'
p130
tp131
sI42
(S'/Volumes/Data/Projects/sphinxit/sphinxit/tests/test_core.py'
p132
g9
S'TestSXQLWithinGroupOrderBy.test_initial'
p133
tp134
sI43
(S'/Volumes/Data/Projects/sphinxit/sphinxit/tests/test_core.py'
p135
g9
S'TestSXQLWithinGroupOrderBy.test_unique_call'
p136
tp137
sI44
(S'/Volumes/Data/Projects/sphinxit/sphinxit/tests/test_core.py'
p138
g9
S'TestSXQLWithinGroupOrderBy.test_wrong_attrs'
p139
tp140
sI45
(S'/Volumes/Data/Projects/sphinxit/sphinxit/tests/test_core.py'
p141
g9
S'TestSum.test_basics'
p142
tp143
sI46
(S'/Volumes/Data/Projects/sphinxit/sphinxit/tests/test_core.py'
p144
g9
S'TestSum.test_wrong_attr'
p145
tp146
sI47
(S'/Volumes/Data/Projects/sphinxit/sphinxit/tests/test_processor.py'
p147
S'sphinxit.tests.test_processor'
p148
S'TestSQLConnector.test_no_connector'
p149
tp150
sI48
(S'/Volumes/Data/Projects/sphinxit/sphinxit/tests/test_processor.py'
p151
g148
S'TestSQLProcessor.test_basic_query'
p152
tp153
sI49
(S'/Volumes/Data/Projects/sphinxit/sphinxit/tests/test_processor.py'
p154
g148
S'TestSQLProcessor.test_cluster'
p155
tp156
sI50
(S'/Volumes/Data/Projects/sphinxit/sphinxit/tests/test_processor.py'
p157
g148
S'TestSQLProcessor.test_filters'
p158
tp159
sI51
(S'/Volumes/Data/Projects/sphinxit/sphinxit/tests/test_processor.py'
p160
g148
S'TestSQLProcessor.test_group_by'
p161
tp162
sI52
(S'/Volumes/Data/Projects/sphinxit/sphinxit/tests/test_processor.py'
p163
g148
S'TestSQLProcessor.test_instance'
p164
tp165
sI53
(S'/Volumes/Data/Projects/sphinxit/sphinxit/tests/test_processor.py'
p166
g148
S'TestSQLProcessor.test_limit'
p167
tp168
sI54
(S'/Volumes/Data/Projects/sphinxit/sphinxit/tests/test_processor.py'
p169
g148
S'TestSQLProcessor.test_match'
p170
tp171
sI55
(S'/Volumes/Data/Projects/sphinxit/sphinxit/tests/test_processor.py'
p172
g148
S'TestSQLProcessor.test_match_with_filters'
p173
tp174
sI56
(S'/Volumes/Data/Projects/sphinxit/sphinxit/tests/test_processor.py'
p175
g148
S'TestSQLProcessor.test_order_by'
p176
tp177
sI57
(S'/Volumes/Data/Projects/sphinxit/sphinxit/tests/test_processor.py'
p178
g148
S'TestSQLProcessor.test_select'
p179
tp180
sI58
(S'/Volumes/Data/Projects/sphinxit/sphinxit/tests/test_processor.py'
p181
g148
S'TestSQLProcessor.test_select_with_filters'
p182
tp183
sI59
(S'/Volumes/Data/Projects/sphinxit/sphinxit/tests/test_processor.py'
p184
g148
S'TestSQLProcessor.test_within_group_order_by'
p185
tp186
sI60
(S'/Volumes/Data/Projects/sphinxit/sphinxit/tests/test_processor.py'
p187
g148
S'TestSnippets.test_basic'
p188
tp189
sI61
(S'/Volumes/Data/Projects/sphinxit/sphinxit/tests/test_processor.py'
p190
g148
S'TestSnippets.test_instance'
p191
tp192
sI62
(S'/Volumes/Data/Projects/sphinxit/sphinxit/tests/test_processor.py'
p193
g148
S'TestSnippets.test_options'
p194
tp195
ss.